(lp0
S'http://dbpedia.org/ontology/distanceLaps'
p1
aS'http://dbpedia.org/ontology/speaker'
p2
aS'http://dbpedia.org/ontology/ons'
p3
aS'http://dbpedia.org/ontology/ranking'
p4
aS'http://dbpedia.org/ontology/blackLongDistancePisteNumber'
p5
aS'http://dbpedia.org/ontology/wptItm'
p6
aS'http://dbpedia.org/ontology/numberOfDistrict'
p7
aS'http://dbpedia.org/ontology/stateOfOriginPoint'
p8
aS'http://dbpedia.org/ontology/localPhonePrefix'
p9
aS'http://dbpedia.org/ontology/numberOfStaff'
p10
aS'http://dbpedia.org/ontology/nationalTournamentBronze'
p11
aS'http://dbpedia.org/ontology/eptFinalTable'
p12
aS'http://dbpedia.org/ontology/numberOfBombs'
p13
aS'http://dbpedia.org/ontology/numberOfIndegree'
p14
aS'http://dbpedia.org/ontology/numberOfLocations'
p15
aS'http://dbpedia.org/ontology/populationPctMen'
p16
aS'http://dbpedia.org/ontology/numberOfDistricts'
p17
aS'http://dbpedia.org/ontology/numberOfRedirectedResource'
p18
aS'http://dbpedia.org/ontology/failedLaunches'
p19
aS'http://dbpedia.org/ontology/usSales'
p20
aS'http://dbpedia.org/ontology/subdivisions'
p21
aS'http://dbpedia.org/ontology/numberBuilt'
p22
aS'http://dbpedia.org/ontology/draftPosition'
p23
aS'http://dbpedia.org/ontology/circulation'
p24
aS'http://dbpedia.org/ontology/production'
p25
aS'http://dbpedia.org/ontology/humanDevelopmentIndex'
p26
aS'http://dbpedia.org/ontology/populationTotal'
p27
aS'http://dbpedia.org/ontology/numberOfPlatformLevels'
p28
aS'http://dbpedia.org/ontology/enginePower'
p29
aS'http://dbpedia.org/ontology/graySubject'
p30
aS'http://dbpedia.org/ontology/numberOfStations'
p31
aS'http://dbpedia.org/ontology/wsopWristband'
p32
aS'http://dbpedia.org/ontology/shareOfAudience'
p33
aS'http://dbpedia.org/ontology/percentageLiteracyWomen'
p34
aS'http://dbpedia.org/ontology/seatNumber'
p35
aS'http://dbpedia.org/ontology/populationMetro'
p36
aS'http://dbpedia.org/ontology/minorityFloorLeader'
p37
aS'http://dbpedia.org/ontology/rankingsSingles'
p38
aS'http://dbpedia.org/ontology/worldTournamentBronze'
p39
aS'http://dbpedia.org/ontology/size_v'
p40
aS'http://dbpedia.org/ontology/numberOfTriples'
p41
aS'http://dbpedia.org/ontology/infantMortality'
p42
aS'http://dbpedia.org/ontology/lowerAge'
p43
aS'http://dbpedia.org/ontology/numberOfSeats'
p44
aS'http://dbpedia.org/ontology/numberOfResourceWithType'
p45
aS'http://dbpedia.org/ontology/poles'
p46
aS'http://dbpedia.org/ontology/numberOfRestaurants'
p47
aS'http://dbpedia.org/ontology/tie'
p48
aS'http://dbpedia.org/ontology/numberOfClassesWithResource'
p49
aS'http://dbpedia.org/ontology/populationPctChildren'
p50
aS'http://dbpedia.org/ontology/numberOfUniqeResources'
p51
aS'http://dbpedia.org/ontology/centuryBreaks'
p52
aS'http://dbpedia.org/ontology/numberOfSpeakers'
p53
aS'http://dbpedia.org/ontology/numberOfPerson'
p54
aS'http://dbpedia.org/ontology/snowParkNumber'
p55
aS'http://dbpedia.org/ontology/numberOfStars'
p56
aS'http://dbpedia.org/ontology/wikiPageCharacterSize'
p57
aS'http://dbpedia.org/ontology/waterPercentage'
p58
aS'http://dbpedia.org/ontology/amateurTie'
p59
aS'http://dbpedia.org/ontology/visitorsPerYear'
p60
aS'http://dbpedia.org/ontology/abstentions'
p61
aS'http://dbpedia.org/ontology/numberOfParticipatingNations'
p62
aS'http://dbpedia.org/ontology/carNumber'
p63
aS'http://dbpedia.org/ontology/numberOfLanes'
p64
aS'http://dbpedia.org/ontology/electionMajority'
p65
aS'http://dbpedia.org/ontology/nationalRanking'
p66
aS'http://dbpedia.org/ontology/fastestLap'
p67
aS'http://dbpedia.org/ontology/landPercentage'
p68
aS'http://dbpedia.org/ontology/bedCount'
p69
aS'http://dbpedia.org/ontology/bestWsopRank'
p70
aS'http://dbpedia.org/ontology/redSkiPisteNumber'
p71
aS'http://dbpedia.org/ontology/classes'
p72
aS'http://dbpedia.org/ontology/sizeLogo'
p73
aS'http://dbpedia.org/ontology/numberOfDoctoralStudents'
p74
aS'http://dbpedia.org/ontology/numberOfPostgraduateStudents'
p75
aS'http://dbpedia.org/ontology/greenLongDistancePisteNumber'
p76
aS'http://dbpedia.org/ontology/races'
p77
aS'http://dbpedia.org/ontology/numberOfOutdegree'
p78
aS'http://dbpedia.org/ontology/teamPoint'
p79
aS'http://dbpedia.org/ontology/amateurKo'
p80
aS'http://dbpedia.org/ontology/amateurFight'
p81
aS'http://dbpedia.org/ontology/vehiclesPerDay'
p82
aS'http://dbpedia.org/ontology/grossDomesticProduct'
p83
aS'http://dbpedia.org/ontology/coastLength'
p84
aS'http://dbpedia.org/ontology/populationUrban'
p85
aS'http://dbpedia.org/ontology/olympicGamesBronze'
p86
aS'http://dbpedia.org/ontology/numberOfIntercommunality'
p87
aS'http://dbpedia.org/ontology/numberOfGoldMedalsWon'
p88
aS'http://dbpedia.org/ontology/populationPctWomen'
p89
aS'http://dbpedia.org/ontology/numberOfMunicipalities'
p90
aS'http://dbpedia.org/ontology/totalTracks'
p91
aS'http://dbpedia.org/ontology/numberOfParticipatingMaleAthletes'
p92
aS'http://dbpedia.org/ontology/percentageAlcohol'
p93
aS'http://dbpedia.org/ontology/redLongDistancePisteNumber'
p94
aS'http://dbpedia.org/ontology/nationalTournamentGold'
p95
aS'http://dbpedia.org/ontology/numberOfLawyers'
p96
aS'http://dbpedia.org/ontology/seasonNumber'
p97
aS'http://dbpedia.org/ontology/otherWins'
p98
aS'http://dbpedia.org/ontology/launches'
p99
aS'http://dbpedia.org/ontology/votesAgainst'
p100
aS'http://dbpedia.org/ontology/numberOfSeasons'
p101
aS'http://dbpedia.org/ontology/championships'
p102
aS'http://dbpedia.org/ontology/numberOfPlayers'
p103
aS'http://dbpedia.org/ontology/blueLongDistancePisteNumber'
p104
aS'http://dbpedia.org/ontology/totalDiscs'
p105
aS'http://dbpedia.org/ontology/elementGroup'
p106
aS'http://dbpedia.org/ontology/imageSize'
p107
aS'http://dbpedia.org/ontology/trackNumber'
p108
aS'http://dbpedia.org/ontology/crewSize'
p109
aS'http://dbpedia.org/ontology/numberOfLines'
p110
aS'http://dbpedia.org/ontology/glycemicIndex'
p111
aS'http://dbpedia.org/ontology/rightAscension'
p112
aS'http://dbpedia.org/ontology/elevatorCount'
p113
aS'http://dbpedia.org/ontology/wikiPageLength'
p114
aS'http://dbpedia.org/ontology/numberOfGraduateStudents'
p115
aS'http://dbpedia.org/ontology/numberOfLifts'
p116
aS'http://dbpedia.org/ontology/capacityFactor'
p117
aS'http://dbpedia.org/ontology/eloRecord'
p118
aS'http://dbpedia.org/ontology/frontierLength'
p119
aS'http://dbpedia.org/ontology/relativeAtomicMass'
p120
aS'http://dbpedia.org/ontology/radius_ly'
p121
aS'http://dbpedia.org/ontology/numberOfVisitors'
p122
aS'http://dbpedia.org/ontology/fc'
p123
aS'http://dbpedia.org/ontology/numberOfOfficials'
p124
aS'http://dbpedia.org/ontology/usk'
p125
aS'http://dbpedia.org/ontology/numberOfNeighbourhood'
p126
aS'http://dbpedia.org/ontology/numberOfCounties'
p127
aS'http://dbpedia.org/ontology/solubility'
p128
aS'http://dbpedia.org/ontology/ceiling'
p129
aS'http://dbpedia.org/ontology/numberOfStores'
p130
aS'http://dbpedia.org/ontology/visitorsTotal'
p131
aS'http://dbpedia.org/ontology/wsopItm'
p132
aS'http://dbpedia.org/ontology/numberOfIslands'
p133
aS'http://dbpedia.org/ontology/maximumInclination'
p134
aS'http://dbpedia.org/ontology/numberOfVineyards'
p135
aS'http://dbpedia.org/ontology/numberOfCollectionItems'
p136
aS'http://dbpedia.org/ontology/continentalTournamentSilver'
p137
aS'http://dbpedia.org/ontology/numberOfSuites'
p138
aS'http://dbpedia.org/ontology/numberOfNewlyIntroducedSports'
p139
aS'http://dbpedia.org/ontology/blueSkiPisteNumber'
p140
aS'http://dbpedia.org/ontology/geneLocationStart'
p141
aS'http://dbpedia.org/ontology/numberOfResource'
p142
aS'http://dbpedia.org/ontology/espnId'
p143
aS'http://dbpedia.org/ontology/numberOfCapitalDeputies'
p144
aS'http://dbpedia.org/ontology/declination'
p145
aS'http://dbpedia.org/ontology/votesFor'
p146
aS'http://dbpedia.org/ontology/rgbCoordinateRed'
p147
aS'http://dbpedia.org/ontology/min'
p148
aS'http://dbpedia.org/ontology/amateurNoContest'
p149
aS'http://dbpedia.org/ontology/numberOfRun'
p150
aS'http://dbpedia.org/ontology/tvComId'
p151
aS'http://dbpedia.org/ontology/greenSkiPisteNumber'
p152
aS'http://dbpedia.org/ontology/statisticValue'
p153
aS'http://dbpedia.org/ontology/numberOfSilverMedalsWon'
p154
aS'http://dbpedia.org/ontology/visitorsPerDay'
p155
aS'http://dbpedia.org/ontology/worldTournamentSilver'
p156
aS'http://dbpedia.org/ontology/numberOfSoccerPlayersBornInPlace'
p157
aS'http://dbpedia.org/ontology/numberOfClasses'
p158
aS'http://dbpedia.org/ontology/numberOfCanton'
p159
aS'http://dbpedia.org/ontology/continentRank'
p160
aS'http://dbpedia.org/ontology/numberOfPages'
p161
aS'http://dbpedia.org/ontology/individualisedPnd'
p162
aS'http://dbpedia.org/ontology/suborbitalFlights'
p163
aS'http://dbpedia.org/ontology/numberOfOrbits'
p164
aS'http://dbpedia.org/ontology/barPassRate'
p165
aS'http://dbpedia.org/ontology/ko'
p166
aS'http://dbpedia.org/ontology/numberOfUndergraduateStudents'
p167
aS'http://dbpedia.org/ontology/rankAgreement'
p168
aS'http://dbpedia.org/ontology/ageRange'
p169
aS'http://dbpedia.org/ontology/fcRuns'
p170
aS'http://dbpedia.org/ontology/numberOfStateDeputies'
p171
aS'http://dbpedia.org/ontology/rocketStages'
p172
aS'http://dbpedia.org/ontology/testaverage'
p173
aS'http://dbpedia.org/ontology/giniCoefficient'
p174
aS'http://dbpedia.org/ontology/percentageLiteracyMen'
p175
aS'http://dbpedia.org/ontology/percentageOfAreaWater'
p176
aS'http://dbpedia.org/ontology/totalPopulation'
p177
aS'http://dbpedia.org/ontology/numberOfPeopleLicensed'
p178
aS'http://dbpedia.org/ontology/wikiPageOutDegree'
p179
aS'http://dbpedia.org/ontology/cmykCoordinateMagenta'
p180
aS'http://dbpedia.org/ontology/totalTravellers'
p181
aS'http://dbpedia.org/ontology/podiums'
p182
aS'http://dbpedia.org/ontology/seatingCapacity'
p183
aS'http://dbpedia.org/ontology/age'
p184
aS'http://dbpedia.org/ontology/numberOfPixels'
p185
aS'http://dbpedia.org/ontology/numberOfVehicles'
p186
aS'http://dbpedia.org/ontology/crews'
p187
aS'http://dbpedia.org/ontology/numberOfUseOfProperties'
p188
aS'http://dbpedia.org/ontology/averageClassSize'
p189
aS'http://dbpedia.org/ontology/passengersPerYear'
p190
aS'http://dbpedia.org/ontology/cmykCoordinateYellow'
p191
aS'http://dbpedia.org/ontology/numberOfResourceOfClass'
p192
aS'http://dbpedia.org/ontology/numberOfLaps'
p193
aS'http://dbpedia.org/ontology/flagSize'
p194
aS'http://dbpedia.org/ontology/currentRank'
p195
aS'http://dbpedia.org/ontology/numberOfProperties'
p196
aS'http://dbpedia.org/ontology/worldTournamentGold'
p197
aS'http://dbpedia.org/ontology/numberOfSoccerPlayersInTeam'
p198
aS'http://dbpedia.org/ontology/towerHeight'
p199
aS'http://dbpedia.org/ontology/unknownOutcomes'
p200
aS'http://dbpedia.org/ontology/numberOfTracks'
p201
aS'http://dbpedia.org/ontology/partitionCoefficient'
p202
aS'http://dbpedia.org/ontology/selectionPoint'
p203
aS'http://dbpedia.org/ontology/numberOfPersonFromUniversity'
p204
aS'http://dbpedia.org/ontology/numberOfMusicalArtistStyle'
p205
aS'http://dbpedia.org/ontology/shoeNumber'
p206
aS'http://dbpedia.org/ontology/bioavailability'
p207
aS'http://dbpedia.org/ontology/numberOfMembers'
p208
aS'http://dbpedia.org/ontology/redListIdNL'
p209
aS'http://dbpedia.org/ontology/numberOfTurns'
p210
aS'http://dbpedia.org/ontology/olympicGamesSilver'
p211
aS'http://dbpedia.org/ontology/numberOfMatches'
p212
aS'http://dbpedia.org/ontology/facultySize'
p213
aS'http://dbpedia.org/ontology/numberOfSpans'
p214
aS'http://dbpedia.org/ontology/numberOfTypes'
p215
aS'http://dbpedia.org/ontology/casualties'
p216
aS'http://dbpedia.org/ontology/victoryAsMgr'
p217
aS'http://dbpedia.org/ontology/agglomerationPopulationTotal'
p218
aS'http://dbpedia.org/ontology/numberOfRockets'
p219
aS'http://dbpedia.org/ontology/second'
p220
aS'http://dbpedia.org/ontology/numberOfFilms'
p221
aS'http://dbpedia.org/ontology/noContest'
p222
aS'http://dbpedia.org/ontology/numberOfGoals'
p223
aS'http://dbpedia.org/ontology/cableCar'
p224
aS'http://dbpedia.org/ontology/minorityLeader'
p225
aS'http://dbpedia.org/ontology/numberOfBronzeMedalsWon'
p226
aS'http://dbpedia.org/ontology/numberSold'
p227
aS'http://dbpedia.org/ontology/cylinderCount'
p228
aS'http://dbpedia.org/ontology/nationalTournamentSilver'
p229
aS'http://dbpedia.org/ontology/inclination'
p230
aS'http://dbpedia.org/ontology/sharingOutPopulation'
p231
aS'http://dbpedia.org/ontology/max'
p232
aS'http://dbpedia.org/ontology/blackSkiPisteNumber'
p233
aS'http://dbpedia.org/ontology/numberOfArrondissement'
p234
aS'http://dbpedia.org/ontology/numberOfAcademicStaff'
p235
aS'http://dbpedia.org/ontology/gdpPerCapita'
p236
aS'http://dbpedia.org/ontology/numberOfSportsEvents'
p237
aS'http://dbpedia.org/ontology/numberOfSoccerPlayerInCountryRepre'
p238
aS'http://dbpedia.org/ontology/phonePrefix'
p239
aS'http://dbpedia.org/ontology/space'
p240
aS'http://dbpedia.org/ontology/cityRank'
p241
aS'http://dbpedia.org/ontology/episodeNumber'
p242
aS'http://dbpedia.org/ontology/partyNumber'
p243
aS'http://dbpedia.org/ontology/numberOfUseOfProperty'
p244
aS'http://dbpedia.org/ontology/specialTrial'
p245
aS'http://dbpedia.org/ontology/appearancesInLeague'
p246
aS'http://dbpedia.org/ontology/representative'
p247
aS'http://dbpedia.org/ontology/successfulLaunches'
p248
aS'http://dbpedia.org/ontology/numberOfWineries'
p249
aS'http://dbpedia.org/ontology/numberOfDoors'
p250
aS'http://dbpedia.org/ontology/satellitesDeployed'
p251
aS'http://dbpedia.org/ontology/parkingLotsTrucks'
p252
aS'http://dbpedia.org/ontology/rating'
p253
aS'http://dbpedia.org/ontology/starRating'
p254
aS'http://dbpedia.org/ontology/numberOfLiveAlbums'
p255
aS'http://dbpedia.org/ontology/establishment'
p256
aS'http://dbpedia.org/ontology/third'
p257
aS'http://dbpedia.org/ontology/numberOfEmployees'
p258
aS'http://dbpedia.org/ontology/majorityLeader'
p259
aS'http://dbpedia.org/ontology/parkingLotsCars'
p260
aS'http://dbpedia.org/ontology/politicalSeats'
p261
aS'http://dbpedia.org/ontology/minimumInclination'
p262
aS'http://dbpedia.org/ontology/numberOfPropertiesUsed'
p263
aS'http://dbpedia.org/ontology/hsvCoordinateSaturation'
p264
aS'http://dbpedia.org/ontology/giniCoefficientRanking'
p265
aS'http://dbpedia.org/ontology/range'
p266
aS'http://dbpedia.org/ontology/polePosition'
p267
aS'http://dbpedia.org/ontology/illiteracy'
p268
aS'http://dbpedia.org/ontology/percentageFat'
p269
aS'http://dbpedia.org/ontology/numberOfParkingSpaces'
p270
aS'http://dbpedia.org/ontology/previousPopulationTotal'
p271
aS'http://dbpedia.org/ontology/dist_pc'
p272
aS'http://dbpedia.org/ontology/idNumber'
p273
aS'http://dbpedia.org/ontology/numberOfVolumes'
p274
aS'http://dbpedia.org/ontology/numberOfSports'
p275
aS'http://dbpedia.org/ontology/passengersPerDay'
p276
aS'http://dbpedia.org/ontology/lastPosition'
p277
aS'http://dbpedia.org/ontology/numberOfCity'
p278
aS'http://dbpedia.org/ontology/numberOfCantons'
p279
aS'http://dbpedia.org/ontology/numberOfPeopleAttending'
p280
aS'http://dbpedia.org/ontology/numberOfPersonEntities'
p281
aS'http://dbpedia.org/ontology/goalsInLeague'
p282
aS'http://dbpedia.org/ontology/numberOfStudioAlbums'
p283
aS'http://dbpedia.org/ontology/careerPoints'
p284
aS'http://dbpedia.org/ontology/numberOfProfessionals'
p285
aS'http://dbpedia.org/ontology/numberOfAlbums'
p286
aS'http://dbpedia.org/ontology/numberOfRooms'
p287
aS'http://dbpedia.org/ontology/defeat'
p288
aS'http://dbpedia.org/ontology/rgbCoordinateGreen'
p289
aS'http://dbpedia.org/ontology/numberOfMusicalArtistInstrument'
p290
aS'http://dbpedia.org/ontology/numberOfPassengers'
p291
aS'http://dbpedia.org/ontology/defeatAsMgr'
p292
aS'http://dbpedia.org/ontology/issDockings'
p293
aS'http://dbpedia.org/ontology/omim'
p294
aS'http://dbpedia.org/ontology/numberOfCountries'
p295
aS'http://dbpedia.org/ontology/percentageLiterate'
p296
aS'http://dbpedia.org/ontology/amateurDefeat'
p297
aS'http://dbpedia.org/ontology/numberOfOffices'
p298
aS'http://dbpedia.org/ontology/hsvCoordinateHue'
p299
aS'http://dbpedia.org/ontology/numberOfPredicates'
p300
aS'http://dbpedia.org/ontology/fight'
p301
aS'http://dbpedia.org/ontology/numberOfSettlementsInCountry'
p302
aS'http://dbpedia.org/ontology/podium'
p303
aS'http://dbpedia.org/ontology/rgbCoordinateBlue'
p304
aS'http://dbpedia.org/ontology/squadNumber'
p305
aS'http://dbpedia.org/ontology/numberOfMinistries'
p306
aS'http://dbpedia.org/ontology/elo'
p307
aS'http://dbpedia.org/ontology/numberOfStudents'
p308
aS'http://dbpedia.org/ontology/numberOfReactors'
p309
aS'http://dbpedia.org/ontology/molecularWeight'
p310
aS'http://dbpedia.org/ontology/populationTotalRanking'
p311
aS'http://dbpedia.org/ontology/victory'
p312
aS'http://dbpedia.org/ontology/numberOfVillages'
p313
aS'http://dbpedia.org/ontology/artificialSnowArea'
p314
aS'http://dbpedia.org/ontology/staff'
p315
aS'http://dbpedia.org/ontology/wikiPageInDegree'
p316
aS'http://dbpedia.org/ontology/highestRank'
p317
aS'http://dbpedia.org/ontology/popularVote'
p318
aS'http://dbpedia.org/ontology/numberOfSeatsInParliament'
p319
aS'http://dbpedia.org/ontology/orbitalFlights'
p320
aS'http://dbpedia.org/ontology/teamSize'
p321
aS'http://dbpedia.org/ontology/eptItm'
p322
aS'http://dbpedia.org/ontology/numberOfPersonInOccupation'
p323
aS'http://dbpedia.org/ontology/numberOfTeams'
p324
aS'http://dbpedia.org/ontology/rankArea'
p325
aS'http://dbpedia.org/ontology/numberOfParticipatingAthletes'
p326
aS'http://dbpedia.org/ontology/numberOfVolunteers'
p327
aS'http://dbpedia.org/ontology/deathAge'
p328
aS'http://dbpedia.org/ontology/numberOfDisambiguates'
p329
aS'http://dbpedia.org/ontology/wikiPageRevisionID'
p330
aS'http://dbpedia.org/ontology/numberOfResourceOfType'
p331
aS'http://dbpedia.org/ontology/totalLaunches'
p332
aS'http://dbpedia.org/ontology/highestBreak'
p333
aS'http://dbpedia.org/ontology/onChromosome'
p334
aS'http://dbpedia.org/ontology/numberOfPiersInWater'
p335
aS'http://dbpedia.org/ontology/orbitalEccentricity'
p336
aS'http://dbpedia.org/ontology/siren'
p337
aS'http://dbpedia.org/ontology/roofHeight'
p338
aS'http://dbpedia.org/ontology/countryRank'
p339
aS'http://dbpedia.org/ontology/numberOfCompetitors'
p340
aS'http://dbpedia.org/ontology/orbits'
p341
aS'http://dbpedia.org/ontology/flashPoint'
p342
aS'http://dbpedia.org/ontology/upperAge'
p343
aS'http://dbpedia.org/ontology/output'
p344
aS'http://dbpedia.org/ontology/skiTow'
p345
aS'http://dbpedia.org/ontology/floorCount'
p346
aS'http://dbpedia.org/ontology/goalsInNationalTeam'
p347
aS'http://dbpedia.org/ontology/numberOfPads'
p348
aS'http://dbpedia.org/ontology/sessionNumber'
p349
aS'http://dbpedia.org/ontology/finalLost'
p350
aS'http://dbpedia.org/ontology/numberOfDependency'
p351
aS'http://dbpedia.org/ontology/grayPage'
p352
aS'http://dbpedia.org/ontology/raceWins'
p353
aS'http://dbpedia.org/ontology/skiLift'
p354
aS'http://dbpedia.org/ontology/rankingsDoubles'
p355
aS'http://dbpedia.org/ontology/orbitalInclination'
p356
aS'http://dbpedia.org/ontology/appearancesInNationalTeam'
p357
aS'http://dbpedia.org/ontology/rankInFinalMedalCount'
p358
aS'http://dbpedia.org/ontology/missions'
p359
aS'http://dbpedia.org/ontology/facilityId'
p360
aS'http://dbpedia.org/ontology/numberOfClubs'
p361
aS'http://dbpedia.org/ontology/majorityFloorLeader'
p362
aS'http://dbpedia.org/ontology/numberOfFederalDeputies'
p363
aS'http://dbpedia.org/ontology/wikiPageID'
p364
aS'http://dbpedia.org/ontology/mirDockings'
p365
aS'http://dbpedia.org/ontology/numberOfParticipatingFemaleAthletes'
p366
aS'http://dbpedia.org/ontology/numberOfEntrances'
p367
aS'http://dbpedia.org/ontology/hsvCoordinateValue'
p368
aS'http://dbpedia.org/ontology/numberOfTrails'
p369
aS'http://dbpedia.org/ontology/numberOfEpisodes'
p370
aS'http://dbpedia.org/ontology/cannonNumber'
p371
aS'http://dbpedia.org/ontology/populationRural'
p372
aS'http://dbpedia.org/ontology/amateurVictory'
p373
aS'http://dbpedia.org/ontology/areaTotalRanking'
p374
aS'http://dbpedia.org/ontology/filmNumber'
p375
aS'http://dbpedia.org/ontology/v_hb'
p376
aS'http://dbpedia.org/ontology/continentalTournamentBronze'
p377
aS'http://dbpedia.org/ontology/numberOfSettlement'
p378
aS'http://dbpedia.org/ontology/topFloorHeight'
p379
aS'http://dbpedia.org/ontology/climbUpNumber'
p380
aS'http://dbpedia.org/ontology/partialFailedLaunches'
p381
aS'http://dbpedia.org/ontology/geneLocationEnd'
p382
aS'http://dbpedia.org/ontology/continentalTournamentGold'
p383
aS'http://dbpedia.org/ontology/value'
p384
aS'http://dbpedia.org/ontology/wins'
p385
aS'http://dbpedia.org/ontology/longDistancePisteNumber'
p386
aS'http://dbpedia.org/ontology/elementPeriod'
p387
aS'http://dbpedia.org/ontology/olympicGamesGold'
p388
aS'http://dbpedia.org/ontology/other'
p389
aS'http://dbpedia.org/ontology/skiPisteNumber'
p390
aS'http://dbpedia.org/ontology/numberOfPersonBornInPlace'
p391
aS'http://dbpedia.org/ontology/numberOfLaunches'
p392
aS'http://dbpedia.org/ontology/cmykCoordinateBlack'
p393
aS'http://dbpedia.org/ontology/rankingWins'
p394
aS'http://dbpedia.org/ontology/cmykCoordinateCyanic'
p395
aS'http://dbpedia.org/ontology/rankPopulation'
p396
aS'http://dbpedia.org/ontology/atomicNumber'
p397
aS'http://dbpedia.org/ontology/penaltyScore'
p398
aS'http://dbpedia.org/ontology/numberOfMusicalArtistEntities'
p399
aS'http://dbpedia.org/ontology/wptFinalTable'
p400
aS'http://dbpedia.org/ontology/numberOfCrew'
p401
aS'http://dbpedia.org/ontology/capacity'
p402
aS'http://dbpedia.org/ontology/numberOfHoles'
p403
a.