(dp0
S'http://dbpedia.org/ontology/numberOfRooms'
p1
S'http://dbpedia.org/ontology/Building'
p2
sS'http://dbpedia.org/ontology/visitorsPerYear'
p3
S'http://dbpedia.org/ontology/ArchitecturalStructure'
p4
sS'http://dbpedia.org/ontology/redLongDistancePisteNumber'
p5
S'http://dbpedia.org/ontology/Place'
p6
sS'http://dbpedia.org/ontology/numberOfVillages'
p7
S'http://dbpedia.org/ontology/District'
p8
sS'http://dbpedia.org/ontology/max'
p9
NsS'http://dbpedia.org/ontology/numberOfSeasons'
p10
S'http://dbpedia.org/ontology/TelevisionShow'
p11
sS'http://dbpedia.org/ontology/numberOfMusicalArtistInstrument'
p12
S'http://dbpedia.org/ontology/Instrument'
p13
sS'http://dbpedia.org/ontology/elevatorCount'
p14
S'http://dbpedia.org/ontology/Building'
p15
sS'http://dbpedia.org/ontology/olympicGamesSilver'
p16
S'http://dbpedia.org/ontology/Person'
p17
sS'http://dbpedia.org/ontology/speaker'
p18
NsS'http://dbpedia.org/ontology/numberOfRun'
p19
S'http://dbpedia.org/ontology/Person'
p20
sS'http://dbpedia.org/ontology/numberOfLawyers'
p21
S'http://dbpedia.org/ontology/LawFirm'
p22
sS'http://dbpedia.org/ontology/graySubject'
p23
S'http://dbpedia.org/ontology/AnatomicalStructure'
p24
sS'http://dbpedia.org/ontology/crews'
p25
S'http://dbpedia.org/ontology/SpaceShuttle'
p26
sS'http://dbpedia.org/ontology/range'
p27
S'http://dbpedia.org/ontology/MeanOfTransportation'
p28
sS'http://dbpedia.org/ontology/ageRange'
p29
NsS'http://dbpedia.org/ontology/humanDevelopmentIndex'
p30
S'http://dbpedia.org/ontology/PopulatedPlace'
p31
sS'http://dbpedia.org/ontology/artificialSnowArea'
p32
S'http://dbpedia.org/ontology/Place'
p33
sS'http://dbpedia.org/ontology/numberOfTeams'
p34
S'http://dbpedia.org/ontology/SportsLeague'
p35
sS'http://dbpedia.org/ontology/numberOfSeatsInParliament'
p36
S'http://dbpedia.org/ontology/PoliticalParty'
p37
sS'http://dbpedia.org/ontology/continentRank'
p38
S'http://dbpedia.org/ontology/Skyscraper'
p39
sS'http://dbpedia.org/ontology/coastLength'
p40
S'http://dbpedia.org/ontology/Place'
p41
sS'http://dbpedia.org/ontology/numberOfVineyards'
p42
S'http://dbpedia.org/ontology/WineRegion'
p43
sS'http://dbpedia.org/ontology/numberOfVolumes'
p44
S'http://dbpedia.org/ontology/WrittenWork'
p45
sS'http://dbpedia.org/ontology/otherWins'
p46
S'http://dbpedia.org/ontology/SnookerPlayer'
p47
sS'http://dbpedia.org/ontology/blackLongDistancePisteNumber'
p48
S'http://dbpedia.org/ontology/Place'
p49
sS'http://dbpedia.org/ontology/frontierLength'
p50
S'http://dbpedia.org/ontology/Place'
p51
sS'http://dbpedia.org/ontology/hsvCoordinateHue'
p52
S'http://dbpedia.org/ontology/Colour'
p53
sS'http://dbpedia.org/ontology/cannonNumber'
p54
S'http://dbpedia.org/ontology/Place'
p55
sS'http://dbpedia.org/ontology/numberOfUndergraduateStudents'
p56
S'http://dbpedia.org/ontology/EducationalInstitution'
p57
sS'http://dbpedia.org/ontology/numberOfPredicates'
p58
NsS'http://dbpedia.org/ontology/numberOfPlayers'
p59
S'http://dbpedia.org/ontology/Activity'
p60
sS'http://dbpedia.org/ontology/numberOfIndegree'
p61
NsS'http://dbpedia.org/ontology/numberOfRestaurants'
p62
S'http://dbpedia.org/ontology/Hotel'
p63
sS'http://dbpedia.org/ontology/trackNumber'
p64
S'http://dbpedia.org/ontology/Song'
p65
sS'http://dbpedia.org/ontology/rankInFinalMedalCount'
p66
S'http://dbpedia.org/ontology/OlympicResult'
p67
sS'http://dbpedia.org/ontology/populationTotal'
p68
Vhttp://dbpedia.org/ontology/City
p69
sS'http://dbpedia.org/ontology/percentageLiteracyMen'
p70
S'http://dbpedia.org/ontology/PopulatedPlace'
p71
sS'http://dbpedia.org/ontology/cableCar'
p72
S'http://dbpedia.org/ontology/Place'
p73
sS'http://dbpedia.org/ontology/nationalTournamentGold'
p74
S'http://dbpedia.org/ontology/Person'
p75
sS'http://dbpedia.org/ontology/minorityFloorLeader'
p76
NsS'http://dbpedia.org/ontology/redSkiPisteNumber'
p77
S'http://dbpedia.org/ontology/Place'
p78
sS'http://dbpedia.org/ontology/numberOfProfessionals'
p79
S'http://dbpedia.org/ontology/Activity'
p80
sS'http://dbpedia.org/ontology/wikiPageRevisionID'
p81
NsS'http://dbpedia.org/ontology/majorityLeader'
p82
NsS'http://dbpedia.org/ontology/totalTravellers'
p83
S'http://dbpedia.org/ontology/YearInSpaceflight'
p84
sS'http://dbpedia.org/ontology/suborbitalFlights'
p85
S'http://dbpedia.org/ontology/YearInSpaceflight'
p86
sS'http://dbpedia.org/ontology/rankArea'
p87
S'http://dbpedia.org/ontology/PopulatedPlace'
p88
sS'http://dbpedia.org/ontology/wins'
p89
NsS'http://dbpedia.org/ontology/elementGroup'
p90
S'http://dbpedia.org/ontology/ChemicalElement'
p91
sS'http://dbpedia.org/ontology/numberOfCity'
p92
S'http://dbpedia.org/ontology/Continent'
p93
sS'http://dbpedia.org/ontology/populationTotalRanking'
p94
S'http://dbpedia.org/ontology/PopulatedPlace'
p95
sS'http://dbpedia.org/ontology/rankAgreement'
p96
S'http://dbpedia.org/ontology/Place'
p97
sS'http://dbpedia.org/ontology/numberOfLaunches'
p98
S'http://dbpedia.org/ontology/MeanOfTransportation'
p99
sS'http://dbpedia.org/ontology/visitorsPerDay'
p100
S'http://dbpedia.org/ontology/ArchitecturalStructure'
p101
sS'http://dbpedia.org/ontology/deathAge'
p102
S'http://dbpedia.org/ontology/Person'
p103
sS'http://dbpedia.org/ontology/numberOfPropertiesUsed'
p104
NsS'http://dbpedia.org/ontology/orbitalEccentricity'
p105
S'http://dbpedia.org/ontology/CelestialBody'
p106
sS'http://dbpedia.org/ontology/seatNumber'
p107
S'http://dbpedia.org/ontology/AdministrativeRegion'
p108
sS'http://dbpedia.org/ontology/nationalTournamentBronze'
p109
S'http://dbpedia.org/ontology/Person'
p110
sS'http://dbpedia.org/ontology/numberOfEpisodes'
p111
S'http://dbpedia.org/ontology/TelevisionShow'
p112
sS'http://dbpedia.org/ontology/distanceLaps'
p113
S'http://dbpedia.org/ontology/GrandPrix'
p114
sS'http://dbpedia.org/ontology/numberOfPerson'
p115
S'http://dbpedia.org/ontology/Country'
p116
sS'http://dbpedia.org/ontology/greenSkiPisteNumber'
p117
S'http://dbpedia.org/ontology/Place'
p118
sS'http://dbpedia.org/ontology/numberOfStateDeputies'
p119
S'http://dbpedia.org/ontology/PopulatedPlace'
p120
sS'http://dbpedia.org/ontology/numberOfHoles'
p121
S'http://dbpedia.org/ontology/GolfCourse'
p122
sS'http://dbpedia.org/ontology/successfulLaunches'
p123
NsS'http://dbpedia.org/ontology/parkingLotsCars'
p124
S'http://dbpedia.org/ontology/RestArea'
p125
sS'http://dbpedia.org/ontology/sessionNumber'
p126
NsS'http://dbpedia.org/ontology/championships'
p127
S'http://dbpedia.org/ontology/Agent'
p128
sS'http://dbpedia.org/ontology/upperAge'
p129
S'http://dbpedia.org/ontology/School'
p130
sS'http://dbpedia.org/ontology/classes'
p131
S'http://dbpedia.org/ontology/School'
p132
sS'http://dbpedia.org/ontology/lastPosition'
p133
S'http://dbpedia.org/ontology/FormulaOneRacer'
p134
sS'http://dbpedia.org/ontology/centuryBreaks'
p135
S'http://dbpedia.org/ontology/SnookerPlayer'
p136
sS'http://dbpedia.org/ontology/populationPctChildren'
p137
S'http://dbpedia.org/ontology/PopulatedPlace'
p138
sS'http://dbpedia.org/ontology/numberOfCompetitors'
p139
S'http://dbpedia.org/ontology/OlympicResult'
p140
sS'http://dbpedia.org/ontology/teamSize'
p141
NsS'http://dbpedia.org/ontology/numberOfLocations'
p142
S'http://dbpedia.org/ontology/Organisation'
p143
sS'http://dbpedia.org/ontology/totalTracks'
p144
S'http://dbpedia.org/ontology/Album'
p145
sS'http://dbpedia.org/ontology/relativeAtomicMass'
p146
S'http://dbpedia.org/ontology/ChemicalElement'
p147
sS'http://dbpedia.org/ontology/siren'
p148
NsS'http://dbpedia.org/ontology/finalLost'
p149
S'http://dbpedia.org/ontology/TennisPlayer'
p150
sS'http://dbpedia.org/ontology/numberOfSpeakers'
p151
S'http://dbpedia.org/ontology/Language'
p152
sS'http://dbpedia.org/ontology/parkingLotsTrucks'
p153
S'http://dbpedia.org/ontology/RestArea'
p154
sS'http://dbpedia.org/ontology/numberOfDistrict'
p155
S'http://dbpedia.org/ontology/Department'
p156
sS'http://dbpedia.org/ontology/numberOfPostgraduateStudents'
p157
S'http://dbpedia.org/ontology/University'
p158
sS'http://dbpedia.org/ontology/numberOfSports'
p159
NsS'http://dbpedia.org/ontology/numberOfProperties'
p160
NsS'http://dbpedia.org/ontology/orbits'
p161
NsS'http://dbpedia.org/ontology/numberOfPages'
p162
S'http://dbpedia.org/ontology/WrittenWork'
p163
sS'http://dbpedia.org/ontology/votesAgainst'
p164
S'http://dbpedia.org/ontology/StatedResolution'
p165
sS'http://dbpedia.org/ontology/cmykCoordinateMagenta'
p166
S'http://dbpedia.org/ontology/Colour'
p167
sS'http://dbpedia.org/ontology/averageClassSize'
p168
S'http://dbpedia.org/ontology/School'
p169
sS'http://dbpedia.org/ontology/continentalTournamentBronze'
p170
S'http://dbpedia.org/ontology/Person'
p171
sS'http://dbpedia.org/ontology/dist_pc'
p172
S'http://dbpedia.org/ontology/Openswarm'
p173
sS'http://dbpedia.org/ontology/glycemicIndex'
p174
S'http://dbpedia.org/ontology/Food'
p175
sS'http://dbpedia.org/ontology/numberOfStars'
p176
S'http://dbpedia.org/ontology/Constellation'
p177
sS'http://dbpedia.org/ontology/numberOfPassengers'
p178
S'http://dbpedia.org/ontology/Ship'
p179
sS'http://dbpedia.org/ontology/phonePrefix'
p180
S'http://dbpedia.org/ontology/PopulatedPlace'
p181
sS'http://dbpedia.org/ontology/rating'
p182
Vhttp://dbpedia.org/ontology/Film
p183
sS'http://dbpedia.org/ontology/numberOfUseOfProperties'
p184
NsS'http://dbpedia.org/ontology/numberOfCapitalDeputies'
p185
S'http://dbpedia.org/ontology/PopulatedPlace'
p186
sS'http://dbpedia.org/ontology/ranking'
p187
S'http://dbpedia.org/ontology/Organisation'
p188
sS'http://dbpedia.org/ontology/wptFinalTable'
p189
S'http://dbpedia.org/ontology/PokerPlayer'
p190
sS'http://dbpedia.org/ontology/episodeNumber'
p191
S'http://dbpedia.org/ontology/TelevisionEpisode'
p192
sS'http://dbpedia.org/ontology/cmykCoordinateBlack'
p193
S'http://dbpedia.org/ontology/Colour'
p194
sS'http://dbpedia.org/ontology/numberOfTurns'
p195
S'http://dbpedia.org/ontology/RaceTrack'
p196
sS'http://dbpedia.org/ontology/numberOfOfficials'
p197
S'http://dbpedia.org/ontology/OlympicResult'
p198
sS'http://dbpedia.org/ontology/olympicGamesBronze'
p199
S'http://dbpedia.org/ontology/Person'
p200
sS'http://dbpedia.org/ontology/eptFinalTable'
p201
S'http://dbpedia.org/ontology/PokerPlayer'
p202
sS'http://dbpedia.org/ontology/podium'
p203
S'http://dbpedia.org/ontology/Person'
p204
sS'http://dbpedia.org/ontology/wikiPageLength'
p205
NsS'http://dbpedia.org/ontology/greenLongDistancePisteNumber'
p206
S'http://dbpedia.org/ontology/Place'
p207
sS'http://dbpedia.org/ontology/numberOfLines'
p208
S'http://dbpedia.org/ontology/PublicTransitSystem'
p209
sS'http://dbpedia.org/ontology/numberOfSoccerPlayersInTeam'
p210
S'http://dbpedia.org/ontology/SoccerClub'
p211
sS'http://dbpedia.org/ontology/bedCount'
p212
S'http://dbpedia.org/ontology/Hospital'
p213
sS'http://dbpedia.org/ontology/sharingOutPopulation'
p214
S'http://dbpedia.org/ontology/PopulatedPlace'
p215
sS'http://dbpedia.org/ontology/minimumInclination'
p216
S'http://dbpedia.org/ontology/LaunchPad'
p217
sS'http://dbpedia.org/ontology/infantMortality'
p218
S'http://dbpedia.org/ontology/PopulatedPlace'
p219
sS'http://dbpedia.org/ontology/draftPosition'
p220
S'http://dbpedia.org/ontology/Athlete'
p221
sS'http://dbpedia.org/ontology/unknownOutcomes'
p222
S'http://dbpedia.org/ontology/Rocket'
p223
sS'http://dbpedia.org/ontology/geneLocationStart'
p224
S'http://dbpedia.org/ontology/GeneLocation'
p225
sS'http://dbpedia.org/ontology/flashPoint'
p226
S'http://dbpedia.org/ontology/ChemicalSubstance'
p227
sS'http://dbpedia.org/ontology/numberOfSpans'
p228
S'http://dbpedia.org/ontology/Bridge'
p229
sS'http://dbpedia.org/ontology/races'
p230
S'http://dbpedia.org/ontology/FormulaOneRacer'
p231
sS'http://dbpedia.org/ontology/populationRural'
p232
S'http://dbpedia.org/ontology/PopulatedPlace'
p233
sS'http://dbpedia.org/ontology/radius_ly'
p234
S'http://dbpedia.org/ontology/Globularswarm'
p235
sS'http://dbpedia.org/ontology/numberOfPiersInWater'
p236
S'http://dbpedia.org/ontology/Bridge'
p237
sS'http://dbpedia.org/ontology/idNumber'
p238
S'http://dbpedia.org/ontology/Person'
p239
sS'http://dbpedia.org/ontology/victory'
p240
S'http://dbpedia.org/ontology/Person'
p241
sS'http://dbpedia.org/ontology/imageSize'
p242
NsS'http://dbpedia.org/ontology/worldTournamentSilver'
p243
S'http://dbpedia.org/ontology/Person'
p244
sS'http://dbpedia.org/ontology/testaverage'
p245
S'http://dbpedia.org/ontology/School'
p246
sS'http://dbpedia.org/ontology/eptItm'
p247
S'http://dbpedia.org/ontology/PokerPlayer'
p248
sS'http://dbpedia.org/ontology/rankingsDoubles'
p249
S'http://dbpedia.org/ontology/TennisPlayer'
p250
sS'http://dbpedia.org/ontology/landPercentage'
p251
S'http://dbpedia.org/ontology/Place'
p252
sS'http://dbpedia.org/ontology/numberOfPersonEntities'
p253
S'http://dbpedia.org/ontology/Country'
p254
sS'http://dbpedia.org/ontology/roofHeight'
p255
S'http://dbpedia.org/ontology/Skyscraper'
p256
sS'http://dbpedia.org/ontology/numberOfFederalDeputies'
p257
S'http://dbpedia.org/ontology/PopulatedPlace'
p258
sS'http://dbpedia.org/ontology/circulation'
p259
S'http://dbpedia.org/ontology/WrittenWork'
p260
sS'http://dbpedia.org/ontology/rocketStages'
p261
S'http://dbpedia.org/ontology/Rocket'
p262
sS'http://dbpedia.org/ontology/numberOfUniqeResources'
p263
NsS'http://dbpedia.org/ontology/vehiclesPerDay'
p264
S'http://dbpedia.org/ontology/RouteOfTransportation'
p265
sS'http://dbpedia.org/ontology/numberOfMinistries'
p266
S'http://dbpedia.org/ontology/Country'
p267
sS'http://dbpedia.org/ontology/noContest'
p268
S'http://dbpedia.org/ontology/Boxer'
p269
sS'http://dbpedia.org/ontology/skiTow'
p270
S'http://dbpedia.org/ontology/Place'
p271
sS'http://dbpedia.org/ontology/numberOfVolunteers'
p272
S'http://dbpedia.org/ontology/Organisation'
p273
sS'http://dbpedia.org/ontology/representative'
p274
S'http://dbpedia.org/ontology/Place'
p275
sS'http://dbpedia.org/ontology/partitionCoefficient'
p276
S'http://dbpedia.org/ontology/ChemicalSubstance'
p277
sS'http://dbpedia.org/ontology/giniCoefficientRanking'
p278
S'http://dbpedia.org/ontology/PopulatedPlace'
p279
sS'http://dbpedia.org/ontology/populationMetro'
p280
NsS'http://dbpedia.org/ontology/numberOfResourceWithType'
p281
NsS'http://dbpedia.org/ontology/numberOfGoals'
p282
S'http://dbpedia.org/ontology/CareerStation'
p283
sS'http://dbpedia.org/ontology/totalPopulation'
p284
S'http://dbpedia.org/ontology/EthnicGroup'
p285
sS'http://dbpedia.org/ontology/numberOfParticipatingFemaleAthletes'
p286
S'http://dbpedia.org/ontology/Olympics'
p287
sS'http://dbpedia.org/ontology/numberOfAcademicStaff'
p288
S'http://dbpedia.org/ontology/EducationalInstitution'
p289
sS'http://dbpedia.org/ontology/rankPopulation'
p290
S'http://dbpedia.org/ontology/PopulatedPlace'
p291
sS'http://dbpedia.org/ontology/wikiPageOutDegree'
p292
NsS'http://dbpedia.org/ontology/passengersPerDay'
p293
S'http://dbpedia.org/ontology/Infrastructure'
p294
sS'http://dbpedia.org/ontology/goalsInNationalTeam'
p295
S'http://dbpedia.org/ontology/SoccerPlayer'
p296
sS'http://dbpedia.org/ontology/v_hb'
p297
S'http://dbpedia.org/ontology/Globularswarm'
p298
sS'http://dbpedia.org/ontology/appearancesInNationalTeam'
p299
S'http://dbpedia.org/ontology/SoccerPlayer'
p300
sS'http://dbpedia.org/ontology/blueLongDistancePisteNumber'
p301
S'http://dbpedia.org/ontology/Place'
p302
sS'http://dbpedia.org/ontology/highestBreak'
p303
S'http://dbpedia.org/ontology/SnookerPlayer'
p304
sS'http://dbpedia.org/ontology/votesFor'
p305
S'http://dbpedia.org/ontology/StatedResolution'
p306
sS'http://dbpedia.org/ontology/second'
p307
S'http://dbpedia.org/ontology/Person'
p308
sS'http://dbpedia.org/ontology/failedLaunches'
p309
NsS'http://dbpedia.org/ontology/selectionPoint'
p310
S'http://dbpedia.org/ontology/Athlete'
p311
sS'http://dbpedia.org/ontology/numberOfParkingSpaces'
p312
S'http://dbpedia.org/ontology/Hotel'
p313
sS'http://dbpedia.org/ontology/numberOfCounties'
p314
S'http://dbpedia.org/ontology/PopulatedPlace'
p315
sS'http://dbpedia.org/ontology/usk'
p316
Vhttp://dbpedia.org/ontology/VideoGame
p317
sS'http://dbpedia.org/ontology/numberOfSettlementsInCountry'
p318
S'http://dbpedia.org/ontology/Country'
p319
sS'http://dbpedia.org/ontology/worldTournamentGold'
p320
S'http://dbpedia.org/ontology/Person'
p321
sS'http://dbpedia.org/ontology/numberOfStudioAlbums'
p322
S'http://dbpedia.org/ontology/MusicalArtist'
p323
sS'http://dbpedia.org/ontology/areaTotalRanking'
p324
S'http://dbpedia.org/ontology/PopulatedPlace'
p325
sS'http://dbpedia.org/ontology/populationPctMen'
p326
S'http://dbpedia.org/ontology/PopulatedPlace'
p327
sS'http://dbpedia.org/ontology/defeat'
p328
S'http://dbpedia.org/ontology/Boxer'
p329
sS'http://dbpedia.org/ontology/numberOfNeighbourhood'
p330
S'http://dbpedia.org/ontology/GermanSettlement'
p331
sS'http://dbpedia.org/ontology/politicalSeats'
p332
S'http://dbpedia.org/ontology/Settlement'
p333
sS'http://dbpedia.org/ontology/wikiPageInDegree'
p334
NsS'http://dbpedia.org/ontology/lowerAge'
p335
S'http://dbpedia.org/ontology/School'
p336
sS'http://dbpedia.org/ontology/minorityLeader'
p337
NsS'http://dbpedia.org/ontology/launches'
p338
S'http://dbpedia.org/ontology/LaunchPad'
p339
sS'http://dbpedia.org/ontology/numberOfSilverMedalsWon'
p340
S'http://dbpedia.org/ontology/SportCompetitionResult'
p341
sS'http://dbpedia.org/ontology/numberOfIslands'
p342
S'http://dbpedia.org/ontology/Island'
p343
sS'http://dbpedia.org/ontology/inclination'
p344
S'http://dbpedia.org/ontology/Spacecraft'
p345
sS'http://dbpedia.org/ontology/numberOfClasses'
p346
NsS'http://dbpedia.org/ontology/elementPeriod'
p347
S'http://dbpedia.org/ontology/ChemicalElement'
p348
sS'http://dbpedia.org/ontology/populationPctWomen'
p349
S'http://dbpedia.org/ontology/PopulatedPlace'
p350
sS'http://dbpedia.org/ontology/numberOfStations'
p351
S'http://dbpedia.org/ontology/RouteOfTransportation'
p352
sS'http://dbpedia.org/ontology/numberOfSoccerPlayersBornInPlace'
p353
S'http://dbpedia.org/ontology/Place'
p354
sS'http://dbpedia.org/ontology/rankingsSingles'
p355
S'http://dbpedia.org/ontology/TennisPlayer'
p356
sS'http://dbpedia.org/ontology/numberOfMunicipalities'
p357
S'http://dbpedia.org/ontology/PopulatedPlace'
p358
sS'http://dbpedia.org/ontology/usSales'
p359
S'http://dbpedia.org/ontology/Sales'
p360
sS'http://dbpedia.org/ontology/numberOfPersonInOccupation'
p361
S'http://dbpedia.org/ontology/PersonFunction'
p362
sS'http://dbpedia.org/ontology/space'
p363
S'http://dbpedia.org/ontology/Building'
p364
sS'http://dbpedia.org/ontology/amateurFight'
p365
S'http://dbpedia.org/ontology/Boxer'
p366
sS'http://dbpedia.org/ontology/filmNumber'
p367
S'http://dbpedia.org/ontology/Person'
p368
sS'http://dbpedia.org/ontology/amateurDefeat'
p369
S'http://dbpedia.org/ontology/Boxer'
p370
sS'http://dbpedia.org/ontology/grayPage'
p371
S'http://dbpedia.org/ontology/AnatomicalStructure'
p372
sS'http://dbpedia.org/ontology/nationalRanking'
p373
S'http://dbpedia.org/ontology/EducationalInstitution'
p374
sS'http://dbpedia.org/ontology/numberOfPeopleLicensed'
p375
S'http://dbpedia.org/ontology/Activity'
p376
sS'http://dbpedia.org/ontology/rgbCoordinateRed'
p377
S'http://dbpedia.org/ontology/Colour'
p378
sS'http://dbpedia.org/ontology/percentageLiteracyWomen'
p379
S'http://dbpedia.org/ontology/PopulatedPlace'
p380
sS'http://dbpedia.org/ontology/geneLocationEnd'
p381
S'http://dbpedia.org/ontology/GeneLocation'
p382
sS'http://dbpedia.org/ontology/specialTrial'
p383
S'http://dbpedia.org/ontology/Person'
p384
sS'http://dbpedia.org/ontology/orbitalInclination'
p385
S'http://dbpedia.org/ontology/SpaceMission'
p386
sS'http://dbpedia.org/ontology/numberOfSportsEvents'
p387
NsS'http://dbpedia.org/ontology/numberOfGoldMedalsWon'
p388
S'http://dbpedia.org/ontology/SportCompetitionResult'
p389
sS'http://dbpedia.org/ontology/grossDomesticProduct'
p390
S'http://dbpedia.org/ontology/PopulatedPlace'
p391
sS'http://dbpedia.org/ontology/elo'
p392
S'http://dbpedia.org/ontology/ChessPlayer'
p393
sS'http://dbpedia.org/ontology/tie'
p394
S'http://dbpedia.org/ontology/Boxer'
p395
sS'http://dbpedia.org/ontology/numberOfTracks'
p396
S'http://dbpedia.org/ontology/Infrastructure'
p397
sS'http://dbpedia.org/ontology/percentageLiterate'
p398
S'http://dbpedia.org/ontology/PopulatedPlace'
p399
sS'http://dbpedia.org/ontology/capacityFactor'
p400
S'http://dbpedia.org/ontology/PowerStation'
p401
sS'http://dbpedia.org/ontology/visitorsTotal'
p402
S'http://dbpedia.org/ontology/ArchitecturalStructure'
p403
sS'http://dbpedia.org/ontology/numberOfVehicles'
p404
S'http://dbpedia.org/ontology/PublicTransitSystem'
p405
sS'http://dbpedia.org/ontology/carNumber'
p406
S'http://dbpedia.org/ontology/FormulaOneRacer'
p407
sS'http://dbpedia.org/ontology/appearancesInLeague'
p408
S'http://dbpedia.org/ontology/SoccerPlayer'
p409
sS'http://dbpedia.org/ontology/numberOfDoors'
p410
S'http://dbpedia.org/ontology/Automobile'
p411
sS'http://dbpedia.org/ontology/numberOfDisambiguates'
p412
NsS'http://dbpedia.org/ontology/poles'
p413
S'http://dbpedia.org/ontology/FormulaOneRacer'
p414
sS'http://dbpedia.org/ontology/currentRank'
p415
S'http://dbpedia.org/ontology/SnookerPlayer'
p416
sS'http://dbpedia.org/ontology/facultySize'
p417
S'http://dbpedia.org/ontology/EducationalInstitution'
p418
sS'http://dbpedia.org/ontology/ko'
p419
S'http://dbpedia.org/ontology/Boxer'
p420
sS'http://dbpedia.org/ontology/penaltyScore'
p421
S'http://dbpedia.org/ontology/PenaltyShootOut'
p422
sS'http://dbpedia.org/ontology/cylinderCount'
p423
S'http://dbpedia.org/ontology/Locomotive'
p424
sS'http://dbpedia.org/ontology/continentalTournamentSilver'
p425
S'http://dbpedia.org/ontology/Person'
p426
sS'http://dbpedia.org/ontology/waterPercentage'
p427
S'http://dbpedia.org/ontology/Place'
p428
sS'http://dbpedia.org/ontology/declination'
p429
S'http://dbpedia.org/ontology/Constellation'
p430
sS'http://dbpedia.org/ontology/casualties'
p431
S'http://dbpedia.org/ontology/MilitaryConflict_,_NaturalEvent_,_Attack'
p432
sS'http://dbpedia.org/ontology/floorCount'
p433
S'http://dbpedia.org/ontology/Building'
p434
sS'http://dbpedia.org/ontology/subdivisions'
p435
NsS'http://dbpedia.org/ontology/teamPoint'
p436
S'http://dbpedia.org/ontology/Athlete'
p437
sS'http://dbpedia.org/ontology/abstentions'
p438
S'http://dbpedia.org/ontology/StatedResolution'
p439
sS'http://dbpedia.org/ontology/hsvCoordinateSaturation'
p440
S'http://dbpedia.org/ontology/Colour'
p441
sS'http://dbpedia.org/ontology/numberOfMatches'
p442
S'http://dbpedia.org/ontology/CareerStation'
p443
sS'http://dbpedia.org/ontology/numberOfLaps'
p444
S'http://dbpedia.org/ontology/FormulaOneRacing'
p445
sS'http://dbpedia.org/ontology/hsvCoordinateValue'
p446
S'http://dbpedia.org/ontology/Colour'
p447
sS'http://dbpedia.org/ontology/numberOfPads'
p448
S'http://dbpedia.org/ontology/LaunchPad'
p449
sS'http://dbpedia.org/ontology/numberOfWineries'
p450
S'http://dbpedia.org/ontology/WineRegion'
p451
sS'http://dbpedia.org/ontology/nationalTournamentSilver'
p452
S'http://dbpedia.org/ontology/Person'
p453
sS'http://dbpedia.org/ontology/rgbCoordinateBlue'
p454
S'http://dbpedia.org/ontology/Colour'
p455
sS'http://dbpedia.org/ontology/numberBuilt'
p456
S'http://dbpedia.org/ontology/Aircraft'
p457
sS'http://dbpedia.org/ontology/numberOfLifts'
p458
S'http://dbpedia.org/ontology/SkiArea'
p459
sS'http://dbpedia.org/ontology/numberOfResource'
p460
NsS'http://dbpedia.org/ontology/goalsInLeague'
p461
S'http://dbpedia.org/ontology/SoccerPlayer'
p462
sS'http://dbpedia.org/ontology/numberOfStaff'
p463
S'http://dbpedia.org/ontology/Organisation'
p464
sS'http://dbpedia.org/ontology/espnId'
p465
S'http://dbpedia.org/ontology/Athlete'
p466
sS'http://dbpedia.org/ontology/numberOfClassesWithResource'
p467
NsS'http://dbpedia.org/ontology/popularVote'
p468
S'http://dbpedia.org/ontology/Election'
p469
sS'http://dbpedia.org/ontology/ons'
p470
S'http://dbpedia.org/ontology/Settlement'
p471
sS'http://dbpedia.org/ontology/age'
p472
S'http://dbpedia.org/ontology/Agent'
p473
sS'http://dbpedia.org/ontology/numberOfStudents'
p474
S'http://dbpedia.org/ontology/EducationalInstitution'
p475
sS'http://dbpedia.org/ontology/atomicNumber'
p476
S'http://dbpedia.org/ontology/ChemicalElement'
p477
sS'http://dbpedia.org/ontology/skiLift'
p478
S'http://dbpedia.org/ontology/Place'
p479
sS'http://dbpedia.org/ontology/numberOfTrails'
p480
S'http://dbpedia.org/ontology/SkiArea'
p481
sS'http://dbpedia.org/ontology/numberOfLiveAlbums'
p482
S'http://dbpedia.org/ontology/MusicalArtist'
p483
sS'http://dbpedia.org/ontology/totalLaunches'
p484
NsS'http://dbpedia.org/ontology/bestWsopRank'
p485
S'http://dbpedia.org/ontology/PokerPlayer'
p486
sS'http://dbpedia.org/ontology/cityRank'
p487
S'http://dbpedia.org/ontology/Skyscraper'
p488
sS'http://dbpedia.org/ontology/highestRank'
p489
S'http://dbpedia.org/ontology/SnookerPlayer'
p490
sS'http://dbpedia.org/ontology/statisticValue'
p491
S'http://dbpedia.org/ontology/BaseballPlayer'
p492
sS'http://dbpedia.org/ontology/victoryAsMgr'
p493
S'http://dbpedia.org/ontology/Person'
p494
sS'http://dbpedia.org/ontology/facilityId'
p495
S'http://dbpedia.org/ontology/RadioStation'
p496
sS'http://dbpedia.org/ontology/numberOfPersonFromUniversity'
p497
S'http://dbpedia.org/ontology/University'
p498
sS'http://dbpedia.org/ontology/longDistancePisteNumber'
p499
S'http://dbpedia.org/ontology/Place'
p500
sS'http://dbpedia.org/ontology/numberOfRockets'
p501
S'http://dbpedia.org/ontology/MilitaryAircraft'
p502
sS'http://dbpedia.org/ontology/numberOfPersonBornInPlace'
p503
S'http://dbpedia.org/ontology/Place'
p504
sS'http://dbpedia.org/ontology/cmykCoordinateCyanic'
p505
S'http://dbpedia.org/ontology/Colour'
p506
sS'http://dbpedia.org/ontology/blackSkiPisteNumber'
p507
S'http://dbpedia.org/ontology/Place'
p508
sS'http://dbpedia.org/ontology/numberOfEmployees'
p509
S'http://dbpedia.org/ontology/Organisation'
p510
sS'http://dbpedia.org/ontology/satellitesDeployed'
p511
S'http://dbpedia.org/ontology/SpaceShuttle'
p512
sS'http://dbpedia.org/ontology/percentageAlcohol'
p513
S'http://dbpedia.org/ontology/Beverage'
p514
sS'http://dbpedia.org/ontology/sizeLogo'
p515
NsS'http://dbpedia.org/ontology/numberOfSoccerPlayerInCountryRepre'
p516
S'http://dbpedia.org/ontology/SoccerClub'
p517
sS'http://dbpedia.org/ontology/percentageOfAreaWater'
p518
NsS'http://dbpedia.org/ontology/numberOfParticipatingNations'
p519
S'http://dbpedia.org/ontology/Olympics'
p520
sS'http://dbpedia.org/ontology/molecularWeight'
p521
S'http://dbpedia.org/ontology/ChemicalSubstance'
p522
sS'http://dbpedia.org/ontology/wptItm'
p523
S'http://dbpedia.org/ontology/PokerPlayer'
p524
sS'http://dbpedia.org/ontology/numberOfNewlyIntroducedSports'
p525
S'http://dbpedia.org/ontology/Olympics'
p526
sS'http://dbpedia.org/ontology/blueSkiPisteNumber'
p527
S'http://dbpedia.org/ontology/Place'
p528
sS'http://dbpedia.org/ontology/fastestLap'
p529
S'http://dbpedia.org/ontology/FormulaOneRacer'
p530
sS'http://dbpedia.org/ontology/numberOfDoctoralStudents'
p531
S'http://dbpedia.org/ontology/University'
p532
sS'http://dbpedia.org/ontology/numberOfGraduateStudents'
p533
S'http://dbpedia.org/ontology/EducationalInstitution'
p534
sS'http://dbpedia.org/ontology/numberOfParticipatingAthletes'
p535
S'http://dbpedia.org/ontology/Olympics'
p536
sS'http://dbpedia.org/ontology/numberOfMusicalArtistStyle'
p537
S'http://dbpedia.org/ontology/MusicGenre'
p538
sS'http://dbpedia.org/ontology/numberOfCrew'
p539
S'http://dbpedia.org/ontology/MeanOfTransportation'
p540
sS'http://dbpedia.org/ontology/majorityFloorLeader'
p541
NsS'http://dbpedia.org/ontology/staff'
p542
S'http://dbpedia.org/ontology/Organisation'
p543
sS'http://dbpedia.org/ontology/numberOfEntrances'
p544
S'http://dbpedia.org/ontology/Cave'
p545
sS'http://dbpedia.org/ontology/crewSize'
p546
S'http://dbpedia.org/ontology/SpaceMission'
p547
sS'http://dbpedia.org/ontology/flagSize'
p548
S'http://dbpedia.org/ontology/Flag'
p549
sS'http://dbpedia.org/ontology/numberOfUseOfProperty'
p550
NsS'http://dbpedia.org/ontology/omim'
p551
S'http://dbpedia.org/ontology/Biomolecule'
p552
sS'http://dbpedia.org/ontology/onChromosome'
p553
S'http://dbpedia.org/ontology/GeneLocation'
p554
sS'http://dbpedia.org/ontology/amateurTie'
p555
S'http://dbpedia.org/ontology/Boxer'
p556
sS'http://dbpedia.org/ontology/solubility'
p557
S'http://dbpedia.org/ontology/ChemicalSubstance'
p558
sS'http://dbpedia.org/ontology/numberOfDistricts'
p559
S'http://dbpedia.org/ontology/Regency'
p560
sS'http://dbpedia.org/ontology/illiteracy'
p561
S'http://dbpedia.org/ontology/PopulatedPlace'
p562
sS'http://dbpedia.org/ontology/numberOfCountries'
p563
S'http://dbpedia.org/ontology/AdministrativeRegion'
p564
sS'http://dbpedia.org/ontology/squadNumber'
p565
S'http://dbpedia.org/ontology/SportsTeamMember'
p566
sS'http://dbpedia.org/ontology/wsopWristband'
p567
S'http://dbpedia.org/ontology/PokerPlayer'
p568
sS'http://dbpedia.org/ontology/numberOfMembers'
p569
S'http://dbpedia.org/ontology/Legislature'
p570
sS'http://dbpedia.org/ontology/orbitalFlights'
p571
S'http://dbpedia.org/ontology/YearInSpaceflight'
p572
sS'http://dbpedia.org/ontology/individualisedPnd'
p573
S'http://dbpedia.org/ontology/Person'
p574
sS'http://dbpedia.org/ontology/maximumInclination'
p575
S'http://dbpedia.org/ontology/LaunchPad'
p576
sS'http://dbpedia.org/ontology/countryRank'
p577
S'http://dbpedia.org/ontology/Skyscraper'
p578
sS'http://dbpedia.org/ontology/electionMajority'
p579
NsS'http://dbpedia.org/ontology/numberOfCantons'
p580
S'http://dbpedia.org/ontology/PopulatedPlace'
p581
sS'http://dbpedia.org/ontology/snowParkNumber'
p582
S'http://dbpedia.org/ontology/Place'
p583
sS'http://dbpedia.org/ontology/shareOfAudience'
p584
S'http://dbpedia.org/ontology/Broadcaster'
p585
sS'http://dbpedia.org/ontology/localPhonePrefix'
p586
S'http://dbpedia.org/ontology/PopulatedPlace'
p587
sS'http://dbpedia.org/ontology/passengersPerYear'
p588
S'http://dbpedia.org/ontology/Infrastructure'
p589
sS'http://dbpedia.org/ontology/establishment'
p590
S'http://dbpedia.org/ontology/ChristianDoctrine'
p591
sS'http://dbpedia.org/ontology/numberOfArrondissement'
p592
S'http://dbpedia.org/ontology/Department'
p593
sS'http://dbpedia.org/ontology/numberOfOrbits'
p594
S'http://dbpedia.org/ontology/SpaceMission'
p595
sS'http://dbpedia.org/ontology/numberOfBombs'
p596
S'http://dbpedia.org/ontology/MilitaryAircraft'
p597
sS'http://dbpedia.org/ontology/numberOfParticipatingMaleAthletes'
p598
S'http://dbpedia.org/ontology/Olympics'
p599
sS'http://dbpedia.org/ontology/numberOfTypes'
p600
NsS'http://dbpedia.org/ontology/shoeNumber'
p601
S'http://dbpedia.org/ontology/Person'
p602
sS'http://dbpedia.org/ontology/skiPisteNumber'
p603
S'http://dbpedia.org/ontology/Place'
p604
sS'http://dbpedia.org/ontology/min'
p605
NsS'http://dbpedia.org/ontology/numberOfOutdegree'
p606
NsS'http://dbpedia.org/ontology/wsopItm'
p607
S'http://dbpedia.org/ontology/PokerPlayer'
p608
sS'http://dbpedia.org/ontology/bioavailability'
p609
S'http://dbpedia.org/ontology/Drug'
p610
sS'http://dbpedia.org/ontology/topFloorHeight'
p611
S'http://dbpedia.org/ontology/Skyscraper'
p612
sS'http://dbpedia.org/ontology/polePosition'
p613
S'http://dbpedia.org/ontology/Person'
p614
sS'http://dbpedia.org/ontology/totalDiscs'
p615
S'http://dbpedia.org/ontology/Album'
p616
sS'http://dbpedia.org/ontology/numberOfPeopleAttending'
p617
S'http://dbpedia.org/ontology/Event'
p618
sS'http://dbpedia.org/ontology/numberOfMusicalArtistEntities'
p619
S'http://dbpedia.org/ontology/Country'
p620
sS'http://dbpedia.org/ontology/wikiPageID'
p621
NsS'http://dbpedia.org/ontology/podiums'
p622
S'http://dbpedia.org/ontology/FormulaOneRacer'
p623
sS'http://dbpedia.org/ontology/redListIdNL'
p624
S'http://dbpedia.org/ontology/Species'
p625
sS'http://dbpedia.org/ontology/numberOfCollectionItems'
p626
S'http://dbpedia.org/ontology/Library'
p627
sS'http://dbpedia.org/ontology/numberOfFilms'
p628
S'http://dbpedia.org/ontology/AdultActor'
p629
sS'http://dbpedia.org/ontology/numberOfPlatformLevels'
p630
S'http://dbpedia.org/ontology/Station'
p631
sS'http://dbpedia.org/ontology/mirDockings'
p632
S'http://dbpedia.org/ontology/SpaceShuttle'
p633
sS'http://dbpedia.org/ontology/defeatAsMgr'
p634
S'http://dbpedia.org/ontology/Coach'
p635
sS'http://dbpedia.org/ontology/numberOfOffices'
p636
S'http://dbpedia.org/ontology/LawFirm'
p637
sS'http://dbpedia.org/ontology/numberOfReactors'
p638
S'http://dbpedia.org/ontology/NuclearPowerStation'
p639
sS'http://dbpedia.org/ontology/gdpPerCapita'
p640
S'http://dbpedia.org/ontology/PopulatedPlace'
p641
sS'http://dbpedia.org/ontology/amateurKo'
p642
S'http://dbpedia.org/ontology/Boxer'
p643
sS'http://dbpedia.org/ontology/wikiPageCharacterSize'
p644
NsS'http://dbpedia.org/ontology/olympicGamesGold'
p645
S'http://dbpedia.org/ontology/Person'
p646
sS'http://dbpedia.org/ontology/numberOfResourceOfClass'
p647
NsS'http://dbpedia.org/ontology/numberOfTriples'
p648
NsS'http://dbpedia.org/ontology/numberOfIntercommunality'
p649
S'http://dbpedia.org/ontology/Department'
p650
sS'http://dbpedia.org/ontology/amateurNoContest'
p651
S'http://dbpedia.org/ontology/Boxer'
p652
sS'http://dbpedia.org/ontology/giniCoefficient'
p653
S'http://dbpedia.org/ontology/PopulatedPlace'
p654
sS'http://dbpedia.org/ontology/numberOfVisitors'
p655
Vhttp://dbpedia.org/ontology/Museum
p656
sS'http://dbpedia.org/ontology/numberOfSuites'
p657
S'http://dbpedia.org/ontology/Hotel'
p658
sS'http://dbpedia.org/ontology/numberOfClubs'
p659
S'http://dbpedia.org/ontology/Activity'
p660
sS'http://dbpedia.org/ontology/towerHeight'
p661
S'http://dbpedia.org/ontology/Building'
p662
sS'http://dbpedia.org/ontology/amateurVictory'
p663
S'http://dbpedia.org/ontology/Boxer'
p664
sS'http://dbpedia.org/ontology/numberOfStores'
p665
S'http://dbpedia.org/ontology/ShoppingMall'
p666
sS'http://dbpedia.org/ontology/eloRecord'
p667
S'http://dbpedia.org/ontology/ChessPlayer'
p668
sS'http://dbpedia.org/ontology/numberOfPixels'
p669
NsS'http://dbpedia.org/ontology/numberOfBronzeMedalsWon'
p670
S'http://dbpedia.org/ontology/SportCompetitionResult'
p671
sS'http://dbpedia.org/ontology/size_v'
p672
S'http://dbpedia.org/ontology/Openswarm'
p673
sS'http://dbpedia.org/ontology/numberOfResourceOfType'
p674
NsS'http://dbpedia.org/ontology/numberOfSettlement'
p675
S'http://dbpedia.org/ontology/Department'
p676
sS'http://dbpedia.org/ontology/fc'
p677
S'http://dbpedia.org/ontology/Cricketer'
p678
sS'http://dbpedia.org/ontology/continentalTournamentGold'
p679
S'http://dbpedia.org/ontology/Person'
p680
sS'http://dbpedia.org/ontology/enginePower'
p681
S'http://dbpedia.org/ontology/MeanOfTransportation'
p682
sS'http://dbpedia.org/ontology/barPassRate'
p683
S'http://dbpedia.org/ontology/School'
p684
sS'http://dbpedia.org/ontology/raceWins'
p685
S'http://dbpedia.org/ontology/Person'
p686
sS'http://dbpedia.org/ontology/seasonNumber'
p687
S'http://dbpedia.org/ontology/TelevisionEpisode'
p688
sS'http://dbpedia.org/ontology/numberOfAlbums'
p689
S'http://dbpedia.org/ontology/MusicalArtist'
p690
sS'http://dbpedia.org/ontology/ceiling'
p691
S'http://dbpedia.org/ontology/Aircraft'
p692
sS'http://dbpedia.org/ontology/numberOfDependency'
p693
S'http://dbpedia.org/ontology/Continent'
p694
sS'http://dbpedia.org/ontology/cmykCoordinateYellow'
p695
S'http://dbpedia.org/ontology/Colour'
p696
sS'http://dbpedia.org/ontology/agglomerationPopulationTotal'
p697
NsS'http://dbpedia.org/ontology/numberOfRedirectedResource'
p698
NsS'http://dbpedia.org/ontology/production'
p699
S'http://dbpedia.org/ontology/Company'
p700
sS'http://dbpedia.org/ontology/capacity'
p701
NsS'http://dbpedia.org/ontology/stateOfOriginPoint'
p702
S'http://dbpedia.org/ontology/Athlete'
p703
sS'http://dbpedia.org/ontology/value'
p704
NsS'http://dbpedia.org/ontology/careerPoints'
p705
S'http://dbpedia.org/ontology/FormulaOneRacer'
p706
sS'http://dbpedia.org/ontology/numberOfLanes'
p707
S'http://dbpedia.org/ontology/RouteOfTransportation'
p708
sS'http://dbpedia.org/ontology/numberOfSeats'
p709
S'http://dbpedia.org/ontology/MeanOfTransportation'
p710
sS'http://dbpedia.org/ontology/rankingWins'
p711
S'http://dbpedia.org/ontology/SnookerPlayer'
p712
sS'http://dbpedia.org/ontology/rgbCoordinateGreen'
p713
S'http://dbpedia.org/ontology/Colour'
p714
sS'http://dbpedia.org/ontology/fight'
p715
S'http://dbpedia.org/ontology/Boxer'
p716
sS'http://dbpedia.org/ontology/output'
p717
S'http://dbpedia.org/ontology/Place'
p718
sS'http://dbpedia.org/ontology/fcRuns'
p719
S'http://dbpedia.org/ontology/Cricketer'
p720
sS'http://dbpedia.org/ontology/other'
p721
S'http://dbpedia.org/ontology/University'
p722
sS'http://dbpedia.org/ontology/starRating'
p723
S'http://dbpedia.org/ontology/Hotel'
p724
sS'http://dbpedia.org/ontology/populationUrban'
p725
S'http://dbpedia.org/ontology/PopulatedPlace'
p726
sS'http://dbpedia.org/ontology/climbUpNumber'
p727
S'http://dbpedia.org/ontology/Place'
p728
sS'http://dbpedia.org/ontology/issDockings'
p729
S'http://dbpedia.org/ontology/SpaceShuttle'
p730
sS'http://dbpedia.org/ontology/partialFailedLaunches'
p731
NsS'http://dbpedia.org/ontology/partyNumber'
p732
NsS'http://dbpedia.org/ontology/seatingCapacity'
p733
S'http://dbpedia.org/ontology/Building'
p734
sS'http://dbpedia.org/ontology/worldTournamentBronze'
p735
S'http://dbpedia.org/ontology/Person'
p736
sS'http://dbpedia.org/ontology/previousPopulationTotal'
p737
S'http://dbpedia.org/ontology/PopulatedPlace'
p738
sS'http://dbpedia.org/ontology/rightAscension'
p739
S'http://dbpedia.org/ontology/CelestialBody'
p740
sS'http://dbpedia.org/ontology/tvComId'
p741
S'http://dbpedia.org/ontology/TelevisionShow'
p742
sS'http://dbpedia.org/ontology/numberSold'
p743
S'http://dbpedia.org/ontology/Sales'
p744
sS'http://dbpedia.org/ontology/missions'
p745
S'http://dbpedia.org/ontology/SpaceShuttle'
p746
sS'http://dbpedia.org/ontology/third'
p747
S'http://dbpedia.org/ontology/Person'
p748
sS'http://dbpedia.org/ontology/percentageFat'
p749
S'http://dbpedia.org/ontology/Food'
p750
sS'http://dbpedia.org/ontology/numberOfCanton'
p751
S'http://dbpedia.org/ontology/Department'
p752
s.